Certificate:
    Data:
        Version: 3 (0x2)
        Serial Number: 3 (0x3)
    Signature Algorithm: sha256WithRSAEncryption
        Issuer: C=CN, ST=Guangdong, L=Shenzhen, O=FreeSign Ltd, OU=R&D, CN=local.freesign.net/emailAddress=taozhijiang@gmail.com
        Validity
            Not Before: Nov 11 08:50:37 2015 GMT
            Not After : Nov 10 08:50:37 2018 GMT
        Subject: C=CN, ST=Guangdong, O=FreeSign Ltd, OU=R&D, CN=local.freesign.net/emailAddress=taozhijiang@gmail.com
        Subject Public Key Info:
            Public Key Algorithm: rsaEncryption
                Public-Key: (2048 bit)
                Modulus:
                    00:a8:a6:09:e0:aa:5c:13:31:32:1a:94:6e:76:db:
                    89:79:f9:94:ef:b8:ec:14:57:dd:7d:5d:2b:09:66:
                    a1:b0:35:80:e6:3d:d7:4c:ad:0e:f5:c8:0b:70:84:
                    0e:e0:87:4c:23:69:07:21:6e:96:b8:6d:29:8f:44:
                    b2:69:b0:f0:ec:91:1d:14:e7:2a:b0:7a:06:89:fe:
                    f7:c9:fe:f6:0b:a0:27:80:ef:d9:f5:59:c5:17:05:
                    de:91:7d:27:1f:e0:5f:9e:75:86:00:16:8c:d0:02:
                    7a:eb:61:8b:d0:27:57:96:67:08:af:37:ae:9c:05:
                    93:b9:41:28:f6:07:bc:5d:63:01:34:13:63:31:31:
                    4a:ff:73:9f:7e:d6:9a:c3:01:c1:9c:20:29:b0:9e:
                    4b:e8:f0:19:1f:05:89:94:51:4d:00:f8:eb:6d:40:
                    68:cc:a8:e6:4f:5e:73:21:30:d5:be:05:af:4a:e5:
                    3a:7d:24:8c:bb:ff:11:e8:fe:a4:9d:0e:41:48:b3:
                    07:6e:e3:38:53:ce:72:8f:30:82:80:80:6e:10:66:
                    51:ed:db:f0:c2:6d:82:2e:17:c3:6d:af:8e:7b:4a:
                    9c:1f:6b:5b:38:05:b9:2b:d1:16:58:c8:d6:41:b1:
                    53:7b:3a:00:f6:24:a3:43:d3:f1:0e:26:ed:63:09:
                    4e:cb
                Exponent: 65537 (0x10001)
        X509v3 extensions:
            X509v3 Basic Constraints: 
                CA:FALSE
            Netscape Comment: 
                OpenSSL Generated Certificate
            X509v3 Subject Key Identifier: 
                7B:97:C3:DC:77:98:A2:C3:10:D4:B6:41:4C:94:F9:79:7E:E9:F6:39
            X509v3 Authority Key Identifier: 
                keyid:AA:5D:73:28:21:9A:02:0F:F9:B2:70:46:8B:3D:DF:CF:B8:CB:21:4F

    Signature Algorithm: sha256WithRSAEncryption
         44:9e:6e:93:b7:d0:bd:e2:72:81:1e:42:1b:f8:61:16:0f:63:
         33:75:6f:94:6e:4b:d5:c2:5c:27:21:1c:e8:44:5e:4a:5e:be:
         6f:ac:62:61:c1:a8:74:dd:76:d1:4c:f0:ef:0d:de:13:f3:40:
         55:81:01:4b:f5:a0:4f:9b:f3:38:42:ac:02:2f:ba:66:95:f0:
         a5:a1:63:be:bc:46:51:9f:68:17:d2:0e:2f:99:97:4e:26:09:
         b3:76:9f:54:84:c9:25:77:6c:85:19:01:33:cd:0d:36:8a:0e:
         17:34:3a:da:bc:27:50:a8:a5:ae:cd:c4:07:c2:db:3d:91:a3:
         1c:65:e2:0b:03:12:84:8b:50:03:b7:1a:2f:f3:57:45:b0:d2:
         aa:be:f2:99:d6:92:c1:8a:48:08:d8:f2:a8:bd:ac:d3:4e:c1:
         d6:27:a6:f5:7f:e1:ac:c8:2f:b0:49:0e:eb:33:ed:40:ed:d1:
         a0:30:5c:94:c2:66:51:16:af:7e:7d:71:1b:37:08:01:b4:6f:
         65:e5:bf:82:94:ce:ef:e2:2c:3e:e7:3e:99:88:4b:b6:ec:05:
         ee:77:c6:f7:48:2d:a8:37:d6:16:ef:df:3b:93:f5:33:e9:92:
         bb:eb:16:eb:f1:42:7e:c2:89:2c:c0:4c:f1:12:3f:0f:72:1b:
         aa:d8:69:21
-----BEGIN CERTIFICATE-----
MIIEHTCCAwWgAwIBAgIBAzANBgkqhkiG9w0BAQsFADCBnDELMAkGA1UEBhMCQ04x
EjAQBgNVBAgMCUd1YW5nZG9uZzERMA8GA1UEBwwIU2hlbnpoZW4xFTATBgNVBAoM
DEZyZWVTaWduIEx0ZDEMMAoGA1UECwwDUiZEMRswGQYDVQQDDBJsb2NhbC5mcmVl
c2lnbi5uZXQxJDAiBgkqhkiG9w0BCQEWFXRhb3poaWppYW5nQGdtYWlsLmNvbTAe
Fw0xNTExMTEwODUwMzdaFw0xODExMTAwODUwMzdaMIGJMQswCQYDVQQGEwJDTjES
MBAGA1UECAwJR3Vhbmdkb25nMRUwEwYDVQQKDAxGcmVlU2lnbiBMdGQxDDAKBgNV
BAsMA1ImRDEbMBkGA1UEAwwSbG9jYWwuZnJlZXNpZ24ubmV0MSQwIgYJKoZIhvcN
AQkBFhV0YW96aGlqaWFuZ0BnbWFpbC5jb20wggEiMA0GCSqGSIb3DQEBAQUAA4IB
DwAwggEKAoIBAQCopgngqlwTMTIalG5224l5+ZTvuOwUV919XSsJZqGwNYDmPddM
rQ71yAtwhA7gh0wjaQchbpa4bSmPRLJpsPDskR0U5yqwegaJ/vfJ/vYLoCeA79n1
WcUXBd6RfScf4F+edYYAFozQAnrrYYvQJ1eWZwivN66cBZO5QSj2B7xdYwE0E2Mx
MUr/c59+1prDAcGcICmwnkvo8BkfBYmUUU0A+OttQGjMqOZPXnMhMNW+Ba9K5Tp9
JIy7/xHo/qSdDkFIswdu4zhTznKPMIKAgG4QZlHt2/DCbYIuF8Ntr457Spwfa1s4
Bbkr0RZYyNZBsVN7OgD2JKND0/EOJu1jCU7LAgMBAAGjezB5MAkGA1UdEwQCMAAw
LAYJYIZIAYb4QgENBB8WHU9wZW5TU0wgR2VuZXJhdGVkIENlcnRpZmljYXRlMB0G
A1UdDgQWBBR7l8Pcd5iiwxDUtkFMlPl5fun2OTAfBgNVHSMEGDAWgBSqXXMoIZoC
D/mycEaLPd/PuMshTzANBgkqhkiG9w0BAQsFAAOCAQEARJ5uk7fQveJygR5CG/hh
Fg9jM3VvlG5L1cJcJyEc6EReSl6+b6xiYcGodN120Uzw7w3eE/NAVYEBS/WgT5vz
OEKsAi+6ZpXwpaFjvrxGUZ9oF9IOL5mXTiYJs3afVITJJXdshRkBM80NNooOFzQ6
2rwnUKilrs3EB8LbPZGjHGXiCwMShItQA7caL/NXRbDSqr7ymdaSwYpICNjyqL2s
007B1iem9X/hrMgvsEkO6zPtQO3RoDBclMJmURavfn1xGzcIAbRvZeW/gpTO7+Is
Puc+mYhLtuwF7nfG90gtqDfWFu/fO5P1M+mSu+sW6/FCfsKJLMBM8RI/D3Ibqthp
IQ==
-----END CERTIFICATE-----
